; Function Attrs: mustprogress nofree norecurse nosync nounwind willreturn memory(read, argmem: readwrite, inaccessiblemem: none) uwtable
define noundef zeroext i1 @_ZN5draco28AttributeOctahedronTransform17InitFromAttributeERKNS_14PointAttributeE(ptr noundef nonnull writeonly align 8 captures(none) dereferenceable(12) %0, ptr noundef nonnull readonly align 8 captures(none) dereferenceable(112) %1) unnamed_addr #3 align 2 {
  %3 = getelementptr inbounds nuw i8, ptr %1, i64 104
  %4 = load ptr, ptr %3, align 8, !tbaa !3
  %.not = icmp eq ptr %4, null
  br i1 %.not, label %11, label %5

5:                                                ; preds = %2
  %6 = load i32, ptr %4, align 8, !tbaa !8
  %.not7 = icmp eq i32 %6, 2
  br i1 %.not7, label %7, label %11

7:                                                ; preds = %5
  %8 = getelementptr inbounds nuw i8, ptr %4, i64 8
  %9 = load ptr, ptr %8, align 8, !tbaa !19
  %.0.copyload.i = load i32, ptr %9, align 1
  %10 = getelementptr inbounds nuw i8, ptr %0, i64 8
  store i32 %.0.copyload.i, ptr %10, align 8, !tbaa !20
  br label %11

11:                                               ; preds = %2, %5, %7
  %.0 = phi i1 [ true, %7 ], [ false, %5 ], [ false, %2 ]
  ret i1 %.0
}